
nand.bin:     file format binary


Disassembly of section .data:

00000000 <.data>:
   0:	e59fd030 	ldr	sp, [pc, #48]	; 0x38
   4:	eb00004a 	bl	0x134
   8:	eb00004d 	bl	0x144
   c:	e3a00203 	mov	r0, #805306368	; 0x30000000
  10:	e3a01a01 	mov	r1, #4096	; 0x1000
  14:	e3a02b01 	mov	r2, #1024	; 0x400
  18:	e3a0d30d 	mov	sp, #872415232	; 0x34000000
  1c:	e59fe018 	ldr	lr, [pc, #24]	; 0x3c
  20:	e59ff018 	ldr	pc, [pc, #24]	; 0x40
  24:	eb000138 	bl	0x50c
  28:	e3a0d30d 	mov	sp, #872415232	; 0x34000000
  2c:	e59fe008 	ldr	lr, [pc, #8]	; 0x3c
  30:	e59ff008 	ldr	pc, [pc, #8]	; 0x40
  34:	eafffffe 	b	0x34
  38:	00004096 	muleq	r0, r6, r0
  3c:	00000034 	andeq	r0, r0, r4, lsr r0
  40:	000005f4 	strdeq	r0, [r0], -r4
  44:	00000044 	andeq	r0, r0, r4, asr #32
  48:	001d0002 	andseq	r0, sp, r2
  4c:	01020000 	mrseq	r0, (UNDEF: 2)
  50:	000d0efb 	strdeq	r0, [sp], -fp
  54:	01010101 	tsteq	r1, r1, lsl #2
  58:	01000000 	mrseq	r0, (UNDEF: 0)
  5c:	00010000 	andeq	r0, r1, r0
  60:	64616568 	strbtvs	r6, [r1], #-1384	; 0xfffffa98
  64:	0000532e 	andeq	r5, r0, lr, lsr #6
  68:	00000000 	andeq	r0, r0, r0
  6c:	00000205 	andeq	r0, r0, r5, lsl #4
  70:	2f180000 	svccs	0x00180000
  74:	2f2f312f 	svccs	0x002f312f
  78:	302f2f31 	eorcc	r2, pc, r1, lsr pc	; <UNPREDICTABLE>
  7c:	312f2f30 			; <UNDEFINED> instruction: 0x312f2f30
  80:	032e6b03 			; <UNDEFINED> instruction: 0x032e6b03
  84:	022f2e0b 	eoreq	r2, pc, #11, 28	; 0xb0
  88:	01010002 	tsteq	r1, r2
  8c:	00000056 	andeq	r0, r0, r6, asr r0
  90:	00e60002 	rsceq	r0, r6, r2
  94:	01040000 	mrseq	r0, (UNDEF: 4)
  98:	00000044 	andeq	r0, r0, r4, asr #32
  9c:	00000000 	andeq	r0, r0, r0
  a0:	00000044 	andeq	r0, r0, r4, asr #32
  a4:	64616568 	strbtvs	r6, [r1], #-1384	; 0xfffffa98
  a8:	2f00532e 	svccs	0x0000532e
  ac:	656d6f68 	strbvs	r6, [sp, #-3944]!	; 0xfffff098
  b0:	61687a2f 	cmnvs	r8, pc, lsr #20
  b4:	6168636f 	cmnvs	r8, pc, ror #6
  b8:	65442f6f 	strbvs	r2, [r4, #-3951]	; 0xfffff091
  bc:	6f746b73 	svcvs	0x00746b73
  c0:	6f6e2f70 	svcvs	0x006e2f70
  c4:	2d736f2d 	ldclcs	15, cr6, [r3, #-180]!	; 0xffffff4c
  c8:	696e696d 	stmdbvs	lr!, {r0, r2, r3, r5, r6, r8, fp, sp, lr}^
  cc:	30343432 	eorscc	r3, r4, r2, lsr r4
  d0:	4e414e2f 	cdpmi	14, 4, cr4, cr1, cr15, {1}
  d4:	4e470044 	cdpmi	0, 4, cr0, cr7, cr4, {2}
  d8:	53412055 	movtpl	r2, #4181	; 0x1055
  dc:	322e3220 	eorcc	r3, lr, #32, 4
  e0:	00302e36 	eorseq	r2, r0, r6, lsr lr
  e4:	11018001 	tstne	r1, r1
  e8:	11061000 	mrsne	r1, (UNDEF: 6)
  ec:	03011201 	movweq	r1, #4609	; 0x1201
  f0:	25081b08 	strcs	r1, [r8, #-2824]	; 0xfffff4f8
  f4:	00051308 	andeq	r1, r5, r8, lsl #6
	...
 100:	0000001c 	andeq	r0, r0, ip, lsl r0
 104:	008c0002 	addeq	r0, ip, r2
 108:	00040000 	andeq	r0, r4, r0
	...
 114:	00000044 	andeq	r0, r0, r4, asr #32
	...
 120:	00001341 	andeq	r1, r0, r1, asr #6
 124:	61656100 	cmnvs	r5, r0, lsl #2
 128:	01006962 	tsteq	r0, r2, ror #18
 12c:	00000009 	andeq	r0, r0, r9
 130:	01080106 	tsteq	r8, r6, lsl #2
 134:	e3a03453 	mov	r3, #1392508928	; 0x53000000
 138:	e3a02000 	mov	r2, #0
 13c:	e5832000 	str	r2, [r3]
 140:	e12fff1e 	bx	lr
 144:	e92d4010 	push	{r4, lr}
 148:	e59f404c 	ldr	r4, [pc, #76]	; 0x19c
 14c:	e24dd038 	sub	sp, sp, #56	; 0x38
 150:	e8b4000f 	ldm	r4!, {r0, r1, r2, r3}
 154:	e28de004 	add	lr, sp, #4
 158:	e8ae000f 	stmia	lr!, {r0, r1, r2, r3}
 15c:	e8b4000f 	ldm	r4!, {r0, r1, r2, r3}
 160:	e8ae000f 	stmia	lr!, {r0, r1, r2, r3}
 164:	e8b4000f 	ldm	r4!, {r0, r1, r2, r3}
 168:	e8ae000f 	stmia	lr!, {r0, r1, r2, r3}
 16c:	e5943000 	ldr	r3, [r4]
 170:	e3a0c312 	mov	ip, #1207959552	; 0x48000000
 174:	e58e3000 	str	r3, [lr]
 178:	e1a0300d 	mov	r3, sp
 17c:	e59f101c 	ldr	r1, [pc, #28]	; 0x1a0
 180:	e5b32004 	ldr	r2, [r3, #4]!
 184:	e48c2004 	str	r2, [ip], #4
 188:	e15c0001 	cmp	ip, r1
 18c:	1afffffb 	bne	0x180
 190:	e28dd038 	add	sp, sp, #56	; 0x38
 194:	e8bd4010 	pop	{r4, lr}
 198:	e12fff1e 	bx	lr
 19c:	000001a4 	andeq	r0, r0, r4, lsr #3
 1a0:	48000034 	stmdami	r0, {r2, r4, r5}
 1a4:	22011110 	andcs	r1, r1, #16, 2
 1a8:	00000700 	andeq	r0, r0, r0, lsl #14
 1ac:	00000700 	andeq	r0, r0, r0, lsl #14
 1b0:	00000700 	andeq	r0, r0, r0, lsl #14
 1b4:	00000700 	andeq	r0, r0, r0, lsl #14
 1b8:	00000700 	andeq	r0, r0, r0, lsl #14
 1bc:	00000700 	andeq	r0, r0, r0, lsl #14
 1c0:	00018005 	andeq	r8, r1, r5
 1c4:	00018005 	andeq	r8, r1, r5
 1c8:	008c07a3 	addeq	r0, ip, r3, lsr #15
 1cc:	000000b1 	strheq	r0, [r0], -r1
 1d0:	00000030 	andeq	r0, r0, r0, lsr r0
 1d4:	00000030 	andeq	r0, r0, r0, lsr r0
 1d8:	3a434347 	bcc	0x10d0efc
 1dc:	4e472820 	cdpmi	8, 4, cr2, cr7, cr0, {1}
 1e0:	6f542055 	svcvs	0x00542055
 1e4:	20736c6f 	rsbscs	r6, r3, pc, ror #24
 1e8:	20726f66 	rsbscs	r6, r2, r6, ror #30
 1ec:	204d5241 	subcs	r5, sp, r1, asr #4
 1f0:	65626d45 	strbvs	r6, [r2, #-3397]!	; 0xfffff2bb
 1f4:	64656464 	strbtvs	r6, [r5], #-1124	; 0xfffffb9c
 1f8:	6f725020 	svcvs	0x00725020
 1fc:	73736563 	cmnvc	r3, #415236096	; 0x18c00000
 200:	2973726f 	ldmdbcs	r3!, {r0, r1, r2, r3, r5, r6, r9, ip, sp, lr}^
 204:	342e3520 	strtcc	r3, [lr], #-1312	; 0xfffffae0
 208:	3220312e 	eorcc	r3, r0, #-2147483637	; 0x8000000b
 20c:	30363130 	eorscc	r3, r6, r0, lsr r1
 210:	20393036 	eorscs	r3, r9, r6, lsr r0
 214:	6c657228 	sfmvs	f7, 2, [r5], #-160	; 0xffffff60
 218:	65736165 	ldrbvs	r6, [r3, #-357]!	; 0xfffffe9b
 21c:	415b2029 	cmpmi	fp, r9, lsr #32
 220:	652f4d52 	strvs	r4, [pc, #-3410]!	; 0xfffff4d6
 224:	6465626d 	strbtvs	r6, [r5], #-621	; 0xfffffd93
 228:	2d646564 	cfstr64cs	mvdx6, [r4, #-400]!	; 0xfffffe70
 22c:	72622d35 	rsbvc	r2, r2, #3392	; 0xd40
 230:	68636e61 	stmdavs	r3!, {r0, r5, r6, r9, sl, fp, sp, lr}^
 234:	76657220 	strbtvc	r7, [r5], -r0, lsr #4
 238:	6f697369 	svcvs	0x00697369
 23c:	3332206e 	teqcc	r2, #110	; 0x6e
 240:	35313737 	ldrcc	r3, [r1, #-1847]!	; 0xfffff8c9
 244:	2f41005d 	svccs	0x0041005d
 248:	61000000 	mrsvs	r0, (UNDEF: 0)
 24c:	69626165 	stmdbvs	r2!, {r0, r2, r5, r6, r8, sp, lr}^
 250:	00250100 	eoreq	r0, r5, r0, lsl #2
 254:	41050000 	mrsmi	r0, (UNDEF: 5)
 258:	54374d52 	ldrtpl	r4, [r7], #-3410	; 0xfffff2ae
 25c:	00494d44 	subeq	r4, r9, r4, asr #26
 260:	01080206 	tsteq	r8, r6, lsl #4
 264:	04120109 	ldreq	r0, [r2], #-265	; 0xfffffef7
 268:	01150114 	tsteq	r5, r4, lsl r1
 26c:	01180317 	tsteq	r8, r7, lsl r3
 270:	011a0119 	tsteq	sl, r9, lsl r1
 274:	0000021e 	andeq	r0, r0, lr, lsl r2
 278:	e3a0344e 	mov	r3, #1308622848	; 0x4e000000
 27c:	e3e00000 	mvn	r0, #0
 280:	e1a02003 	mov	r2, r3
 284:	e5931000 	ldr	r1, [r3]
 288:	e5c30004 	strb	r0, [r3, #4]
 28c:	e3c11b02 	bic	r1, r1, #2048	; 0x800
 290:	e5d23010 	ldrb	r3, [r2, #16]
 294:	e3130001 	tst	r3, #1
 298:	e3a0344e 	mov	r3, #1308622848	; 0x4e000000
 29c:	0afffffb 	beq	0x290
 2a0:	e3812b02 	orr	r2, r1, #2048	; 0x800
 2a4:	e5832000 	str	r2, [r3]
 2a8:	e12fff1e 	bx	lr
 2ac:	e3a0244e 	mov	r2, #1308622848	; 0x4e000000
 2b0:	e5d23010 	ldrb	r3, [r2, #16]
 2b4:	e3130001 	tst	r3, #1
 2b8:	0afffffc 	beq	0x2b0
 2bc:	e12fff1e 	bx	lr
 2c0:	e3a0244e 	mov	r2, #1308622848	; 0x4e000000
 2c4:	e5923000 	ldr	r3, [r2]
 2c8:	e3c33b02 	bic	r3, r3, #2048	; 0x800
 2cc:	e5823000 	str	r3, [r2]
 2d0:	e12fff1e 	bx	lr
 2d4:	e3a0244e 	mov	r2, #1308622848	; 0x4e000000
 2d8:	e5923000 	ldr	r3, [r2]
 2dc:	e3833b02 	orr	r3, r3, #2048	; 0x800
 2e0:	e5823000 	str	r3, [r2]
 2e4:	e12fff1e 	bx	lr
 2e8:	e3a0344e 	mov	r3, #1308622848	; 0x4e000000
 2ec:	e20000ff 	and	r0, r0, #255	; 0xff
 2f0:	e5c30004 	strb	r0, [r3, #4]
 2f4:	e12fff1e 	bx	lr
 2f8:	e3a0344e 	mov	r3, #1308622848	; 0x4e000000
 2fc:	e1a014a0 	lsr	r1, r0, #9
 300:	e1a028a0 	lsr	r2, r0, #17
 304:	e200c0ff 	and	ip, r0, #255	; 0xff
 308:	e20110ff 	and	r1, r1, #255	; 0xff
 30c:	e20220ff 	and	r2, r2, #255	; 0xff
 310:	e1a00ca0 	lsr	r0, r0, #25
 314:	e5c3c008 	strb	ip, [r3, #8]
 318:	e5c31008 	strb	r1, [r3, #8]
 31c:	e5c32008 	strb	r2, [r3, #8]
 320:	e5c30008 	strb	r0, [r3, #8]
 324:	e12fff1e 	bx	lr
 328:	e3a0344e 	mov	r3, #1308622848	; 0x4e000000
 32c:	e5d3000c 	ldrb	r0, [r3, #12]
 330:	e12fff1e 	bx	lr
 334:	e3a0344e 	mov	r3, #1308622848	; 0x4e000000
 338:	e3e00000 	mvn	r0, #0
 33c:	e1a02003 	mov	r2, r3
 340:	e5931004 	ldr	r1, [r3, #4]
 344:	e5c30008 	strb	r0, [r3, #8]
 348:	e3c11002 	bic	r1, r1, #2
 34c:	e5d23020 	ldrb	r3, [r2, #32]
 350:	e3130001 	tst	r3, #1
 354:	e3a0344e 	mov	r3, #1308622848	; 0x4e000000
 358:	0afffffb 	beq	0x34c
 35c:	e3812002 	orr	r2, r1, #2
 360:	e5832004 	str	r2, [r3, #4]
 364:	e12fff1e 	bx	lr
 368:	e3a0244e 	mov	r2, #1308622848	; 0x4e000000
 36c:	e5d23020 	ldrb	r3, [r2, #32]
 370:	e3130001 	tst	r3, #1
 374:	0afffffc 	beq	0x36c
 378:	e12fff1e 	bx	lr
 37c:	e3a0244e 	mov	r2, #1308622848	; 0x4e000000
 380:	e5923004 	ldr	r3, [r2, #4]
 384:	e3c33002 	bic	r3, r3, #2
 388:	e5823004 	str	r3, [r2, #4]
 38c:	e12fff1e 	bx	lr
 390:	e3a0244e 	mov	r2, #1308622848	; 0x4e000000
 394:	e5923004 	ldr	r3, [r2, #4]
 398:	e3833002 	orr	r3, r3, #2
 39c:	e5823004 	str	r3, [r2, #4]
 3a0:	e12fff1e 	bx	lr
 3a4:	e3a0344e 	mov	r3, #1308622848	; 0x4e000000
 3a8:	e20000ff 	and	r0, r0, #255	; 0xff
 3ac:	e5c30008 	strb	r0, [r3, #8]
 3b0:	e12fff1e 	bx	lr
 3b4:	e3a0344e 	mov	r3, #1308622848	; 0x4e000000
 3b8:	e1a014a0 	lsr	r1, r0, #9
 3bc:	e1a028a0 	lsr	r2, r0, #17
 3c0:	e200c0ff 	and	ip, r0, #255	; 0xff
 3c4:	e20110ff 	and	r1, r1, #255	; 0xff
 3c8:	e20220ff 	and	r2, r2, #255	; 0xff
 3cc:	e1a00ca0 	lsr	r0, r0, #25
 3d0:	e5c3c00c 	strb	ip, [r3, #12]
 3d4:	e5c3100c 	strb	r1, [r3, #12]
 3d8:	e5c3200c 	strb	r2, [r3, #12]
 3dc:	e5c3000c 	strb	r0, [r3, #12]
 3e0:	e12fff1e 	bx	lr
 3e4:	e3a0344e 	mov	r3, #1308622848	; 0x4e000000
 3e8:	e5d30010 	ldrb	r0, [r3, #16]
 3ec:	e12fff1e 	bx	lr
 3f0:	e3a03456 	mov	r3, #1442840576	; 0x56000000
 3f4:	e59f20c8 	ldr	r2, [pc, #200]	; 0x4c4
 3f8:	e59310b0 	ldr	r1, [r3, #176]	; 0xb0
 3fc:	e1510002 	cmp	r1, r2
 400:	e92d4030 	push	{r4, r5, lr}
 404:	0a00001a 	beq	0x474
 408:	e59320b0 	ldr	r2, [r3, #176]	; 0xb0
 40c:	e59f30b4 	ldr	r3, [pc, #180]	; 0x4c8
 410:	e1520003 	cmp	r2, r3
 414:	0a000016 	beq	0x474
 418:	e3a0144e 	mov	r1, #1308622848	; 0x4e000000
 41c:	e3a0ec03 	mov	lr, #768	; 0x300
 420:	e3a0c013 	mov	ip, #19
 424:	e59f30a0 	ldr	r3, [pc, #160]	; 0x4cc
 428:	e59f00a0 	ldr	r0, [pc, #160]	; 0x4d0
 42c:	e59f50a0 	ldr	r5, [pc, #160]	; 0x4d4
 430:	e5830000 	str	r0, [r3]
 434:	e59f409c 	ldr	r4, [pc, #156]	; 0x4d8
 438:	e1a02000 	mov	r2, r0
 43c:	e59f0098 	ldr	r0, [pc, #152]	; 0x4dc
 440:	e5835004 	str	r5, [r3, #4]
 444:	e5834008 	str	r4, [r3, #8]
 448:	e583000c 	str	r0, [r3, #12]
 44c:	e59f508c 	ldr	r5, [pc, #140]	; 0x4e0
 450:	e59f408c 	ldr	r4, [pc, #140]	; 0x4e4
 454:	e59f008c 	ldr	r0, [pc, #140]	; 0x4e8
 458:	e5835010 	str	r5, [r3, #16]
 45c:	e5834014 	str	r4, [r3, #20]
 460:	e5830018 	str	r0, [r3, #24]
 464:	e581e000 	str	lr, [r1]
 468:	e581c004 	str	ip, [r1, #4]
 46c:	e8bd4030 	pop	{r4, r5, lr}
 470:	e12fff12 	bx	r2
 474:	e3a0144e 	mov	r1, #1308622848	; 0x4e000000
 478:	e59f304c 	ldr	r3, [pc, #76]	; 0x4cc
 47c:	e59f2068 	ldr	r2, [pc, #104]	; 0x4ec
 480:	e59f0068 	ldr	r0, [pc, #104]	; 0x4f0
 484:	e59f5068 	ldr	r5, [pc, #104]	; 0x4f4
 488:	e59f4068 	ldr	r4, [pc, #104]	; 0x4f8
 48c:	e59fe068 	ldr	lr, [pc, #104]	; 0x4fc
 490:	e5832004 	str	r2, [r3, #4]
 494:	e5830008 	str	r0, [r3, #8]
 498:	e59fc060 	ldr	ip, [pc, #96]	; 0x500
 49c:	e59f2060 	ldr	r2, [pc, #96]	; 0x504
 4a0:	e59f0060 	ldr	r0, [pc, #96]	; 0x508
 4a4:	e583500c 	str	r5, [r3, #12]
 4a8:	e5834010 	str	r4, [r3, #16]
 4ac:	e583e014 	str	lr, [r3, #20]
 4b0:	e583c018 	str	ip, [r3, #24]
 4b4:	e5832000 	str	r2, [r3]
 4b8:	e8bd4030 	pop	{r4, r5, lr}
 4bc:	e5810000 	str	r0, [r1]
 4c0:	e12fff12 	bx	r2
 4c4:	32410000 	subcc	r0, r1, #0
 4c8:	32410002 	subcc	r0, r1, #2
 4cc:	000005a8 	andeq	r0, r0, r8, lsr #11
 4d0:	00000334 	andeq	r0, r0, r4, lsr r3
 4d4:	00000368 	andeq	r0, r0, r8, ror #6
 4d8:	0000037c 	andeq	r0, r0, ip, ror r3
 4dc:	00000390 	muleq	r0, r0, r3
 4e0:	000003a4 	andeq	r0, r0, r4, lsr #7
 4e4:	000003b4 			; <UNDEFINED> instruction: 0x000003b4
 4e8:	000003e4 	andeq	r0, r0, r4, ror #7
 4ec:	000002ac 	andeq	r0, r0, ip, lsr #5
 4f0:	000002c0 	andeq	r0, r0, r0, asr #5
 4f4:	000002d4 	ldrdeq	r0, [r0], -r4
 4f8:	000002e8 	andeq	r0, r0, r8, ror #5
 4fc:	000002f8 	strdeq	r0, [r0], -r8
 500:	00000328 	andeq	r0, r0, r8, lsr #6
 504:	00000278 	andeq	r0, r0, r8, ror r2
 508:	00009830 	andeq	r9, r0, r0, lsr r8
 50c:	e1b03b81 	lsls	r3, r1, #23
 510:	112fff1e 	bxne	lr
 514:	e1b03b82 	lsls	r3, r2, #23
 518:	112fff1e 	bxne	lr
 51c:	e92d41f0 	push	{r4, r5, r6, r7, r8, lr}
 520:	e1a07001 	mov	r7, r1
 524:	e0828001 	add	r8, r2, r1
 528:	e59f5074 	ldr	r5, [pc, #116]	; 0x5a4
 52c:	e1a04000 	mov	r4, r0
 530:	e595c008 	ldr	ip, [r5, #8]
 534:	e1a0e00f 	mov	lr, pc
 538:	e12fff1c 	bx	ip
 53c:	e1580007 	cmp	r8, r7
 540:	9a000014 	bls	0x598
 544:	e3a00000 	mov	r0, #0
 548:	e595c010 	ldr	ip, [r5, #16]
 54c:	e1a0e00f 	mov	lr, pc
 550:	e12fff1c 	bx	ip
 554:	e1a00007 	mov	r0, r7
 558:	e595c014 	ldr	ip, [r5, #20]
 55c:	e1a0e00f 	mov	lr, pc
 560:	e12fff1c 	bx	ip
 564:	e595c004 	ldr	ip, [r5, #4]
 568:	e1a0e00f 	mov	lr, pc
 56c:	e12fff1c 	bx	ip
 570:	e2846c02 	add	r6, r4, #512	; 0x200
 574:	e595c018 	ldr	ip, [r5, #24]
 578:	e1a0e00f 	mov	lr, pc
 57c:	e12fff1c 	bx	ip
 580:	e4c40001 	strb	r0, [r4], #1
 584:	e1560004 	cmp	r6, r4
 588:	1afffff9 	bne	0x574
 58c:	e2877c02 	add	r7, r7, #512	; 0x200
 590:	e1580007 	cmp	r8, r7
 594:	8affffea 	bhi	0x544
 598:	e595300c 	ldr	r3, [r5, #12]
 59c:	e8bd41f0 	pop	{r4, r5, r6, r7, r8, lr}
 5a0:	e12fff13 	bx	r3
 5a4:	000005a8 	andeq	r0, r0, r8, lsr #11
	...
 5c4:	00002f41 	andeq	r2, r0, r1, asr #30
 5c8:	61656100 	cmnvs	r5, r0, lsl #2
 5cc:	01006962 	tsteq	r0, r2, ror #18
 5d0:	00000025 	andeq	r0, r0, r5, lsr #32
 5d4:	4d524105 	ldfmie	f4, [r2, #-20]	; 0xffffffec
 5d8:	4d445437 	cfstrdmi	mvd5, [r4, #-220]	; 0xffffff24
 5dc:	02060049 	andeq	r0, r6, #73	; 0x49
 5e0:	01090108 	tsteq	r9, r8, lsl #2
 5e4:	01140412 	tsteq	r4, r2, lsl r4
 5e8:	03170115 	tsteq	r7, #1073741829	; 0x40000005
 5ec:	01190118 	tsteq	r9, r8, lsl r1
 5f0:	021e011a 	andseq	r0, lr, #-2147483642	; 0x80000006
 5f4:	e3a03456 	mov	r3, #1442840576	; 0x56000000
 5f8:	e3a01b55 	mov	r1, #87040	; 0x15400
 5fc:	e3a02000 	mov	r2, #0
 600:	e5831010 	str	r1, [r3, #16]
 604:	e5832014 	str	r2, [r3, #20]
 608:	eafffffe 	b	0x608
 60c:	00002f41 	andeq	r2, r0, r1, asr #30
 610:	61656100 	cmnvs	r5, r0, lsl #2
 614:	01006962 	tsteq	r0, r2, ror #18
 618:	00000025 	andeq	r0, r0, r5, lsr #32
 61c:	4d524105 	ldfmie	f4, [r2, #-20]	; 0xffffffec
 620:	4d445437 	cfstrdmi	mvd5, [r4, #-220]	; 0xffffff24
 624:	02060049 	andeq	r0, r6, #73	; 0x49
 628:	01090108 	tsteq	r9, r8, lsl #2
 62c:	01140412 	tsteq	r4, r2, lsl r4
 630:	03170115 	tsteq	r7, #1073741829	; 0x40000005
 634:	01190118 	tsteq	r9, r8, lsl r1
 638:	021e011a 	andseq	r0, lr, #-2147483642	; 0x80000006
